target datalayout = "e-m:e-p270:32:32-p271:32:32-p272:64:64-i64:64-i128:128-f80:128-n8:16:32:64-S128"
target triple = "x86_64-pc-linux-gnu"

%struct.redisObject = type { i32, i32, ptr }
%struct.hllhdr = type { [4 x i8], i8, [3 x i8], [8 x i8], [0 x i8] }
%struct.sdshdr8 = type { i8, i8, i8, [0 x i8] }
%struct.sdshdr16 = type <{ i16, i16, i8, [0 x i8] }>
%struct.sdshdr32 = type <{ i32, i32, i8, [0 x i8] }>
%struct.sdshdr64 = type <{ i64, i64, i8, [0 x i8] }>

; Function Attrs: inlinehint nounwind uwtable
define internal i64 @sdslen(ptr noundef %0) #3 {
  %2 = alloca i64, align 8
  %3 = alloca ptr, align 8
  %4 = alloca i8, align 1
  %5 = alloca i32, align 4
  store ptr %0, ptr %3, align 8, !tbaa !13
  call void @llvm.lifetime.start.p0(i64 1, ptr %4) #15
  %6 = load ptr, ptr %3, align 8, !tbaa !13
  %7 = getelementptr inbounds i8, ptr %6, i64 -1
  %8 = load i8, ptr %7, align 1, !tbaa !17
  store i8 %8, ptr %4, align 1, !tbaa !17
  %9 = load i8, ptr %4, align 1, !tbaa !17
  %10 = zext i8 %9 to i32
  %11 = and i32 %10, 7
  switch i32 %11, label %40 [
    i32 0, label %12
    i32 1, label %17
    i32 2, label %23
    i32 3, label %29
    i32 4, label %35
  ]

12:                                               ; preds = %1
  %13 = load i8, ptr %4, align 1, !tbaa !17
  %14 = zext i8 %13 to i32
  %15 = ashr i32 %14, 3
  %16 = sext i32 %15 to i64
  store i64 %16, ptr %2, align 8
  store i32 1, ptr %5, align 4
  br label %41

17:                                               ; preds = %1
  %18 = load ptr, ptr %3, align 8, !tbaa !13
  %19 = getelementptr inbounds i8, ptr %18, i64 -3
  %20 = getelementptr inbounds nuw %struct.sdshdr8, ptr %19, i32 0, i32 0
  %21 = load i8, ptr %20, align 1, !tbaa !17
  %22 = zext i8 %21 to i64
  store i64 %22, ptr %2, align 8
  store i32 1, ptr %5, align 4
  br label %41

23:                                               ; preds = %1
  %24 = load ptr, ptr %3, align 8, !tbaa !13
  %25 = getelementptr inbounds i8, ptr %24, i64 -5
  %26 = getelementptr inbounds nuw %struct.sdshdr16, ptr %25, i32 0, i32 0
  %27 = load i16, ptr %26, align 1, !tbaa !31
  %28 = zext i16 %27 to i64
  store i64 %28, ptr %2, align 8
  store i32 1, ptr %5, align 4
  br label %41

29:                                               ; preds = %1
  %30 = load ptr, ptr %3, align 8, !tbaa !13
  %31 = getelementptr inbounds i8, ptr %30, i64 -9
  %32 = getelementptr inbounds nuw %struct.sdshdr32, ptr %31, i32 0, i32 0
  %33 = load i32, ptr %32, align 1, !tbaa !9
  %34 = zext i32 %33 to i64
  store i64 %34, ptr %2, align 8
  store i32 1, ptr %5, align 4
  br label %41

35:                                               ; preds = %1
  %36 = load ptr, ptr %3, align 8, !tbaa !13
  %37 = getelementptr inbounds i8, ptr %36, i64 -17
  %38 = getelementptr inbounds nuw %struct.sdshdr64, ptr %37, i32 0, i32 0
  %39 = load i64, ptr %38, align 1, !tbaa !11
  store i64 %39, ptr %2, align 8
  store i32 1, ptr %5, align 4
  br label %41

40:                                               ; preds = %1
  store i64 0, ptr %2, align 8
  store i32 1, ptr %5, align 4
  br label %41

41:                                               ; preds = %40, %35, %29, %23, %17, %12
  call void @llvm.lifetime.end.p0(i64 1, ptr %4) #15
  %42 = load i64, ptr %2, align 8
  ret i64 %42
}

; Function Attrs: nounwind uwtable
define dso_local i32 @hllSparseToDense(ptr noundef %0) #0 {
  %2 = alloca i32, align 4
  %3 = alloca ptr, align 8
  %4 = alloca ptr, align 8
  %5 = alloca ptr, align 8
  %6 = alloca ptr, align 8
  %7 = alloca ptr, align 8
  %8 = alloca i32, align 4
  %9 = alloca i32, align 4
  %10 = alloca i32, align 4
  %11 = alloca ptr, align 8
  %12 = alloca ptr, align 8
  %13 = alloca i32, align 4
  %14 = alloca ptr, align 8
  %15 = alloca i64, align 8
  %16 = alloca i64, align 8
  %17 = alloca i64, align 8
  %18 = alloca i64, align 8
  store ptr %0, ptr %3, align 8, !tbaa !23
  call void @llvm.lifetime.start.p0(i64 8, ptr %4) #15
  %19 = load ptr, ptr %3, align 8, !tbaa !23
  %20 = getelementptr inbounds nuw %struct.redisObject, ptr %19, i32 0, i32 2
  %21 = load ptr, ptr %20, align 8, !tbaa !25
  store ptr %21, ptr %4, align 8, !tbaa !13
  call void @llvm.lifetime.start.p0(i64 8, ptr %5) #15
  call void @llvm.lifetime.start.p0(i64 8, ptr %6) #15
  call void @llvm.lifetime.start.p0(i64 8, ptr %7) #15
  %22 = load ptr, ptr %4, align 8, !tbaa !13
  store ptr %22, ptr %7, align 8, !tbaa !27
  call void @llvm.lifetime.start.p0(i64 4, ptr %8) #15
  store i32 0, ptr %8, align 4, !tbaa !9
  call void @llvm.lifetime.start.p0(i64 4, ptr %9) #15
  call void @llvm.lifetime.start.p0(i64 4, ptr %10) #15
  call void @llvm.lifetime.start.p0(i64 8, ptr %11) #15
  %23 = load ptr, ptr %4, align 8, !tbaa !13
  store ptr %23, ptr %11, align 8, !tbaa !13
  call void @llvm.lifetime.start.p0(i64 8, ptr %12) #15
  %24 = load ptr, ptr %11, align 8, !tbaa !13
  %25 = load ptr, ptr %4, align 8, !tbaa !13
  %26 = call i64 @sdslen(ptr noundef %25)
  %27 = getelementptr inbounds nuw i8, ptr %24, i64 %26
  store ptr %27, ptr %12, align 8, !tbaa !13
  %28 = load ptr, ptr %4, align 8, !tbaa !13
  store ptr %28, ptr %6, align 8, !tbaa !27
  %29 = load ptr, ptr %6, align 8, !tbaa !27
  %30 = getelementptr inbounds nuw %struct.hllhdr, ptr %29, i32 0, i32 1
  %31 = load i8, ptr %30, align 1, !tbaa !17
  %32 = zext i8 %31 to i32
  %33 = icmp eq i32 %32, 0
  br i1 %33, label %34, label %35

34:                                               ; preds = %1
  store i32 0, ptr %2, align 4
  store i32 1, ptr %13, align 4
  br label %192

35:                                               ; preds = %1
  %36 = call ptr @sdsnewlen(ptr noundef null, i64 noundef 12304)
  store ptr %36, ptr %5, align 8, !tbaa !13
  %37 = load ptr, ptr %5, align 8, !tbaa !13
  store ptr %37, ptr %6, align 8, !tbaa !27
  %38 = load ptr, ptr %6, align 8, !tbaa !27
  %39 = load ptr, ptr %7, align 8, !tbaa !27
  call void @llvm.memcpy.p0.p0.i64(ptr align 1 %38, ptr align 1 %39, i64 16, i1 false)
  %40 = load ptr, ptr %6, align 8, !tbaa !27
  %41 = getelementptr inbounds nuw %struct.hllhdr, ptr %40, i32 0, i32 1
  store i8 0, ptr %41, align 1, !tbaa !17
  %42 = load ptr, ptr %11, align 8, !tbaa !13
  %43 = getelementptr inbounds nuw i8, ptr %42, i64 16
  store ptr %43, ptr %11, align 8, !tbaa !13
  br label %44

44:                                               ; preds = %179, %35
  %45 = load ptr, ptr %11, align 8, !tbaa !13
  %46 = load ptr, ptr %12, align 8, !tbaa !13
  %47 = icmp ult ptr %45, %46
  br i1 %47, label %48, label %180

48:                                               ; preds = %44
  %49 = load ptr, ptr %11, align 8, !tbaa !13
  %50 = load i8, ptr %49, align 1, !tbaa !17
  %51 = zext i8 %50 to i32
  %52 = and i32 %51, 192
  %53 = icmp eq i32 %52, 0
  br i1 %53, label %54, label %65

54:                                               ; preds = %48
  %55 = load ptr, ptr %11, align 8, !tbaa !13
  %56 = load i8, ptr %55, align 1, !tbaa !17
  %57 = zext i8 %56 to i32
  %58 = and i32 %57, 63
  %59 = add nsw i32 %58, 1
  store i32 %59, ptr %9, align 4, !tbaa !9
  %60 = load i32, ptr %9, align 4, !tbaa !9
  %61 = load i32, ptr %8, align 4, !tbaa !9
  %62 = add nsw i32 %61, %60
  store i32 %62, ptr %8, align 4, !tbaa !9
  %63 = load ptr, ptr %11, align 8, !tbaa !13
  %64 = getelementptr inbounds nuw i8, ptr %63, i32 1
  store ptr %64, ptr %11, align 8, !tbaa !13
  br label %179

65:                                               ; preds = %48
  %66 = load ptr, ptr %11, align 8, !tbaa !13
  %67 = load i8, ptr %66, align 1, !tbaa !17
  %68 = zext i8 %67 to i32
  %69 = and i32 %68, 192
  %70 = icmp eq i32 %69, 64
  br i1 %70, label %71, label %88

71:                                               ; preds = %65
  %72 = load ptr, ptr %11, align 8, !tbaa !13
  %73 = load i8, ptr %72, align 1, !tbaa !17
  %74 = zext i8 %73 to i32
  %75 = and i32 %74, 63
  %76 = shl i32 %75, 8
  %77 = load ptr, ptr %11, align 8, !tbaa !13
  %78 = getelementptr inbounds i8, ptr %77, i64 1
  %79 = load i8, ptr %78, align 1, !tbaa !17
  %80 = zext i8 %79 to i32
  %81 = or i32 %76, %80
  %82 = add nsw i32 %81, 1
  store i32 %82, ptr %9, align 4, !tbaa !9
  %83 = load i32, ptr %9, align 4, !tbaa !9
  %84 = load i32, ptr %8, align 4, !tbaa !9
  %85 = add nsw i32 %84, %83
  store i32 %85, ptr %8, align 4, !tbaa !9
  %86 = load ptr, ptr %11, align 8, !tbaa !13
  %87 = getelementptr inbounds i8, ptr %86, i64 2
  store ptr %87, ptr %11, align 8, !tbaa !13
  br label %178

88:                                               ; preds = %65
  %89 = load ptr, ptr %11, align 8, !tbaa !13
  %90 = load i8, ptr %89, align 1, !tbaa !17
  %91 = zext i8 %90 to i32
  %92 = and i32 %91, 3
  %93 = add nsw i32 %92, 1
  store i32 %93, ptr %9, align 4, !tbaa !9
  %94 = load ptr, ptr %11, align 8, !tbaa !13
  %95 = load i8, ptr %94, align 1, !tbaa !17
  %96 = zext i8 %95 to i32
  %97 = ashr i32 %96, 2
  %98 = and i32 %97, 31
  %99 = add nsw i32 %98, 1
  store i32 %99, ptr %10, align 4, !tbaa !9
  %100 = load i32, ptr %9, align 4, !tbaa !9
  %101 = load i32, ptr %8, align 4, !tbaa !9
  %102 = add nsw i32 %100, %101
  %103 = icmp sgt i32 %102, 16384
  br i1 %103, label %104, label %105

104:                                              ; preds = %88
  br label %180

105:                                              ; preds = %88
  br label %106

106:                                              ; preds = %172, %105
  %107 = load i32, ptr %9, align 4, !tbaa !9
  %108 = add nsw i32 %107, -1
  store i32 %108, ptr %9, align 4, !tbaa !9
  %109 = icmp ne i32 %107, 0
  br i1 %109, label %110, label %175

110:                                              ; preds = %106
  br label %111

111:                                              ; preds = %110
  call void @llvm.lifetime.start.p0(i64 8, ptr %14) #15
  %112 = load ptr, ptr %6, align 8, !tbaa !27
  %113 = getelementptr inbounds nuw %struct.hllhdr, ptr %112, i32 0, i32 4
  %114 = getelementptr inbounds [0 x i8], ptr %113, i64 0, i64 0
  store ptr %114, ptr %14, align 8, !tbaa !13
  call void @llvm.lifetime.start.p0(i64 8, ptr %15) #15
  %115 = load i32, ptr %8, align 4, !tbaa !9
  %116 = mul nsw i32 %115, 6
  %117 = sdiv i32 %116, 8
  %118 = sext i32 %117 to i64
  store i64 %118, ptr %15, align 8, !tbaa !11
  call void @llvm.lifetime.start.p0(i64 8, ptr %16) #15
  %119 = load i32, ptr %8, align 4, !tbaa !9
  %120 = mul nsw i32 %119, 6
  %121 = and i32 %120, 7
  %122 = sext i32 %121 to i64
  store i64 %122, ptr %16, align 8, !tbaa !11
  call void @llvm.lifetime.start.p0(i64 8, ptr %17) #15
  %123 = load i64, ptr %16, align 8, !tbaa !11
  %124 = sub i64 8, %123
  store i64 %124, ptr %17, align 8, !tbaa !11
  call void @llvm.lifetime.start.p0(i64 8, ptr %18) #15
  %125 = load i32, ptr %10, align 4, !tbaa !9
  %126 = sext i32 %125 to i64
  store i64 %126, ptr %18, align 8, !tbaa !11
  %127 = load i64, ptr %16, align 8, !tbaa !11
  %128 = trunc i64 %127 to i32
  %129 = shl i32 63, %128
  %130 = xor i32 %129, -1
  %131 = load ptr, ptr %14, align 8, !tbaa !13
  %132 = load i64, ptr %15, align 8, !tbaa !11
  %133 = getelementptr inbounds nuw i8, ptr %131, i64 %132
  %134 = load i8, ptr %133, align 1, !tbaa !17
  %135 = zext i8 %134 to i32
  %136 = and i32 %135, %130
  %137 = trunc i32 %136 to i8
  store i8 %137, ptr %133, align 1, !tbaa !17
  %138 = load i64, ptr %18, align 8, !tbaa !11
  %139 = load i64, ptr %16, align 8, !tbaa !11
  %140 = shl i64 %138, %139
  %141 = load ptr, ptr %14, align 8, !tbaa !13
  %142 = load i64, ptr %15, align 8, !tbaa !11
  %143 = getelementptr inbounds nuw i8, ptr %141, i64 %142
  %144 = load i8, ptr %143, align 1, !tbaa !17
  %145 = zext i8 %144 to i64
  %146 = or i64 %145, %140
  %147 = trunc i64 %146 to i8
  store i8 %147, ptr %143, align 1, !tbaa !17
  %148 = load i64, ptr %17, align 8, !tbaa !11
  %149 = trunc i64 %148 to i32
  %150 = ashr i32 63, %149
  %151 = xor i32 %150, -1
  %152 = load ptr, ptr %14, align 8, !tbaa !13
  %153 = load i64, ptr %15, align 8, !tbaa !11
  %154 = add i64 %153, 1
  %155 = getelementptr inbounds nuw i8, ptr %152, i64 %154
  %156 = load i8, ptr %155, align 1, !tbaa !17
  %157 = zext i8 %156 to i32
  %158 = and i32 %157, %151
  %159 = trunc i32 %158 to i8
  store i8 %159, ptr %155, align 1, !tbaa !17
  %160 = load i64, ptr %18, align 8, !tbaa !11
  %161 = load i64, ptr %17, align 8, !tbaa !11
  %162 = lshr i64 %160, %161
  %163 = load ptr, ptr %14, align 8, !tbaa !13
  %164 = load i64, ptr %15, align 8, !tbaa !11
  %165 = add i64 %164, 1
  %166 = getelementptr inbounds nuw i8, ptr %163, i64 %165
  %167 = load i8, ptr %166, align 1, !tbaa !17
  %168 = zext i8 %167 to i64
  %169 = or i64 %168, %162
  %170 = trunc i64 %169 to i8
  store i8 %170, ptr %166, align 1, !tbaa !17
  call void @llvm.lifetime.end.p0(i64 8, ptr %18) #15
  call void @llvm.lifetime.end.p0(i64 8, ptr %17) #15
  call void @llvm.lifetime.end.p0(i64 8, ptr %16) #15
  call void @llvm.lifetime.end.p0(i64 8, ptr %15) #15
  call void @llvm.lifetime.end.p0(i64 8, ptr %14) #15
  br label %171

171:                                              ; preds = %111
  br label %172

172:                                              ; preds = %171
  %173 = load i32, ptr %8, align 4, !tbaa !9
  %174 = add nsw i32 %173, 1
  store i32 %174, ptr %8, align 4, !tbaa !9
  br label %106, !llvm.loop !29

175:                                              ; preds = %106
  %176 = load ptr, ptr %11, align 8, !tbaa !13
  %177 = getelementptr inbounds nuw i8, ptr %176, i32 1
  store ptr %177, ptr %11, align 8, !tbaa !13
  br label %178

178:                                              ; preds = %175, %71
  br label %179

179:                                              ; preds = %178, %54
  br label %44, !llvm.loop !30

180:                                              ; preds = %104, %44
  %181 = load i32, ptr %8, align 4, !tbaa !9
  %182 = icmp ne i32 %181, 16384
  br i1 %182, label %183, label %185

183:                                              ; preds = %180
  %184 = load ptr, ptr %5, align 8, !tbaa !13
  call void @sdsfree(ptr noundef %184)
  store i32 -1, ptr %2, align 4
  store i32 1, ptr %13, align 4
  br label %192

185:                                              ; preds = %180
  %186 = load ptr, ptr %3, align 8, !tbaa !23
  %187 = getelementptr inbounds nuw %struct.redisObject, ptr %186, i32 0, i32 2
  %188 = load ptr, ptr %187, align 8, !tbaa !25
  call void @sdsfree(ptr noundef %188)
  %189 = load ptr, ptr %5, align 8, !tbaa !13
  %190 = load ptr, ptr %3, align 8, !tbaa !23
  %191 = getelementptr inbounds nuw %struct.redisObject, ptr %190, i32 0, i32 2
  store ptr %189, ptr %191, align 8, !tbaa !25
  store i32 0, ptr %2, align 4
  store i32 1, ptr %13, align 4
  br label %192

192:                                              ; preds = %185, %183, %34
  call void @llvm.lifetime.end.p0(i64 8, ptr %12) #15
  call void @llvm.lifetime.end.p0(i64 8, ptr %11) #15
  call void @llvm.lifetime.end.p0(i64 4, ptr %10) #15
  call void @llvm.lifetime.end.p0(i64 4, ptr %9) #15
  call void @llvm.lifetime.end.p0(i64 4, ptr %8) #15
  call void @llvm.lifetime.end.p0(i64 8, ptr %7) #15
  call void @llvm.lifetime.end.p0(i64 8, ptr %6) #15
  call void @llvm.lifetime.end.p0(i64 8, ptr %5) #15
  call void @llvm.lifetime.end.p0(i64 8, ptr %4) #15
  %193 = load i32, ptr %2, align 4
  ret i32 %193
}