; Function Attrs: nounwind uwtable
define dso_local range(i32 -1, 1) i32 @hllSparseToDense(ptr noundef captures(none) %0) local_unnamed_addr #5 {
  %2 = getelementptr inbounds nuw i8, ptr %0, i64 8
  %3 = load ptr, ptr %2, align 8, !tbaa !15
  %4 = getelementptr inbounds i8, ptr %3, i64 -1
  %5 = load i8, ptr %4, align 1, !tbaa !11
  %6 = zext i8 %5 to i32
  %7 = and i32 %6, 7
  switch i32 %7, label %sdslen.exit [
    i32 0, label %8
    i32 1, label %11
    i32 2, label %15
    i32 3, label %19
    i32 4, label %23
  ]

8:                                                ; preds = %1
  %9 = lshr i32 %6, 3
  %10 = zext nneg i32 %9 to i64
  br label %sdslen.exit

11:                                               ; preds = %1
  %12 = getelementptr inbounds i8, ptr %3, i64 -3
  %13 = load i8, ptr %12, align 1, !tbaa !11
  %14 = zext i8 %13 to i64
  br label %sdslen.exit

15:                                               ; preds = %1
  %16 = getelementptr inbounds i8, ptr %3, i64 -5
  %17 = load i16, ptr %16, align 1, !tbaa !18
  %18 = zext i16 %17 to i64
  br label %sdslen.exit

19:                                               ; preds = %1
  %20 = getelementptr inbounds i8, ptr %3, i64 -9
  %21 = load i32, ptr %20, align 1, !tbaa !12
  %22 = zext i32 %21 to i64
  br label %sdslen.exit

23:                                               ; preds = %1
  %24 = getelementptr inbounds i8, ptr %3, i64 -17
  %25 = load i64, ptr %24, align 1, !tbaa !5
  br label %sdslen.exit

sdslen.exit:                                      ; preds = %1, %8, %11, %15, %19, %23
  %.0.i = phi i64 [ %25, %23 ], [ %22, %19 ], [ %18, %15 ], [ %14, %11 ], [ %10, %8 ], [ 0, %1 ]
  %26 = getelementptr inbounds nuw i8, ptr %3, i64 %.0.i
  %27 = getelementptr inbounds nuw i8, ptr %3, i64 4
  %28 = load i8, ptr %27, align 1, !tbaa !11
  %29 = icmp eq i8 %28, 0
  br i1 %29, label %92, label %30

30:                                               ; preds = %sdslen.exit
  %31 = tail call ptr @sdsnewlen(ptr noundef null, i64 noundef 12304) #20
  tail call void @llvm.memcpy.p0.p0.i64(ptr noundef nonnull align 1 dereferenceable(16) %31, ptr noundef nonnull align 1 dereferenceable(16) %3, i64 16, i1 false)
  %32 = getelementptr inbounds nuw i8, ptr %31, i64 4
  store i8 0, ptr %32, align 1, !tbaa !11
  %33 = icmp samesign ugt i64 %.0.i, 16
  br i1 %33, label %.lr.ph, label %._crit_edge.thread

.lr.ph:                                           ; preds = %30
  %34 = getelementptr inbounds nuw i8, ptr %3, i64 16
  %35 = getelementptr inbounds nuw i8, ptr %31, i64 16
  br label %36

36:                                               ; preds = %.lr.ph, %.loopexit
  %.05665 = phi i32 [ 0, %.lr.ph ], [ %.1, %.loopexit ]
  %.05864 = phi ptr [ %34, %.lr.ph ], [ %87, %.loopexit ]
  %37 = load i8, ptr %.05864, align 1, !tbaa !11
  %38 = zext i8 %37 to i32
  %trunc = and i8 %37, -64
  switch i8 %trunc, label %51 [
    i8 0, label %39
    i8 64, label %42
  ]

39:                                               ; preds = %36
  %40 = add i32 %.05665, 1
  %41 = add i32 %40, %38
  br label %.loopexit

42:                                               ; preds = %36
  %43 = shl nuw nsw i32 %38, 8
  %44 = and i32 %43, 16128
  %45 = getelementptr inbounds nuw i8, ptr %.05864, i64 1
  %46 = load i8, ptr %45, align 1, !tbaa !11
  %47 = zext i8 %46 to i32
  %48 = add i32 %.05665, 1
  %49 = add i32 %48, %44
  %50 = add i32 %49, %47
  br label %.loopexit

51:                                               ; preds = %36
  %52 = and i32 %38, 3
  %53 = add nuw nsw i32 %52, 1
  %54 = add nsw i32 %53, %.05665
  %55 = icmp sgt i32 %54, 16384
  br i1 %55, label %._crit_edge, label %.preheader

.preheader:                                       ; preds = %51
  %56 = lshr i32 %38, 2
  %57 = and i32 %56, 31
  %58 = add nuw nsw i32 %57, 1
  %59 = zext nneg i32 %58 to i64
  br label %60

60:                                               ; preds = %.preheader, %60
  %.263 = phi i32 [ %.05665, %.preheader ], [ %86, %60 ]
  %.05762 = phi i32 [ %53, %.preheader ], [ %61, %60 ]
  %61 = add nsw i32 %.05762, -1
  %62 = mul nsw i32 %.263, 6
  %63 = sdiv i32 %62, 8
  %64 = sext i32 %63 to i64
  %65 = and i32 %62, 6
  %66 = zext nneg i32 %65 to i64
  %67 = sub nuw nsw i64 8, %66
  %68 = shl nuw nsw i32 63, %65
  %69 = getelementptr inbounds nuw i8, ptr %35, i64 %64
  %70 = load i8, ptr %69, align 1, !tbaa !11
  %71 = trunc i32 %68 to i8
  %72 = xor i8 %71, -1
  %73 = and i8 %70, %72
  %74 = shl nuw nsw i64 %59, %66
  %75 = trunc i64 %74 to i8
  %76 = or i8 %73, %75
  store i8 %76, ptr %69, align 1, !tbaa !11
  %77 = trunc nuw nsw i64 %67 to i16
  %78 = ashr i16 -64, %77
  %79 = getelementptr i8, ptr %69, i64 1
  %80 = load i8, ptr %79, align 1, !tbaa !11
  %81 = trunc nsw i16 %78 to i8
  %82 = and i8 %80, %81
  %83 = lshr i64 %59, %67
  %84 = trunc nuw nsw i64 %83 to i8
  %85 = or i8 %82, %84
  store i8 %85, ptr %79, align 1, !tbaa !11
  %86 = add nsw i32 %.263, 1
  %.not = icmp eq i32 %61, 0
  br i1 %.not, label %.loopexit, label %60, !llvm.loop !20

.loopexit:                                        ; preds = %60, %42, %39
  %.sink = phi i64 [ 2, %42 ], [ 1, %39 ], [ 1, %60 ]
  %.1 = phi i32 [ %50, %42 ], [ %41, %39 ], [ %86, %60 ]
  %87 = getelementptr inbounds nuw i8, ptr %.05864, i64 %.sink
  %88 = icmp ult ptr %87, %26
  br i1 %88, label %36, label %._crit_edge, !llvm.loop !21

._crit_edge:                                      ; preds = %.loopexit, %51
  %.056.lcssa.ph = phi i32 [ %.1, %.loopexit ], [ %.05665, %51 ]
  %89 = icmp eq i32 %.056.lcssa.ph, 16384
  br i1 %89, label %90, label %._crit_edge.thread

._crit_edge.thread:                               ; preds = %30, %._crit_edge
  tail call void @sdsfree(ptr noundef nonnull %31) #20
  br label %92

90:                                               ; preds = %._crit_edge
  %91 = load ptr, ptr %2, align 8, !tbaa !15
  tail call void @sdsfree(ptr noundef %91) #20
  store ptr %31, ptr %2, align 8, !tbaa !15
  br label %92

92:                                               ; preds = %sdslen.exit, %90, %._crit_edge.thread
  %.0 = phi i32 [ -1, %._crit_edge.thread ], [ 0, %90 ], [ 0, %sdslen.exit ]
  ret i32 %.0
}